target datalayout = "e-m:e-p270:32:32-p271:32:32-p272:64:64-i64:64-i128:128-f80:128-n8:16:32:64-S128"
target triple = "x86_64-pc-linux-gnu"

; Function Attrs: nounwind sspstrong uwtable
define internal i64 @str_encode(i32 noundef %0, ptr noundef %1, i64 noundef %2) #0 {
  %4 = alloca i32, align 4
  %5 = alloca ptr, align 8
  %6 = alloca i64, align 8
  %7 = alloca i64, align 8
  %8 = alloca i32, align 4
  store i32 %0, ptr %4, align 4, !tbaa !29
  store ptr %1, ptr %5, align 8, !tbaa !80
  store i64 %2, ptr %6, align 8, !tbaa !12
  call void @llvm.lifetime.start.p0(i64 8, ptr %7) #25
  %9 = load i64, ptr %6, align 8, !tbaa !12
  store i64 %9, ptr %7, align 8, !tbaa !12
  call void @llvm.lifetime.start.p0(i64 4, ptr %8) #25
  %10 = load i32, ptr %4, align 4, !tbaa !29
  %11 = load ptr, ptr %5, align 8, !tbaa !80
  %12 = call i32 @str_transcode(i32 noundef %10, ptr noundef %11, ptr noundef %7)
  store i32 %12, ptr %8, align 4, !tbaa !29
  %13 = load i64, ptr %7, align 8, !tbaa !12
  %14 = load i64, ptr %6, align 8, !tbaa !12
  %15 = load i32, ptr %8, align 4, !tbaa !29
  %16 = call i64 @encoded_dup(i64 noundef %13, i64 noundef %14, i32 noundef %15)
  call void @llvm.lifetime.end.p0(i64 4, ptr %8) #25
  call void @llvm.lifetime.end.p0(i64 8, ptr %7) #25
  ret i64 %16
}