; Function Attrs: nounwind sspstrong uwtable
define internal i64 @str_encode(i32 noundef %0, ptr noundef readonly captures(none) %1, i64 noundef %2) #0 {
  %4 = alloca i64, align 8
  call void @llvm.lifetime.start.p0(i64 8, ptr nonnull %4) #22
  store i64 %2, ptr %4, align 8, !tbaa !22
  %5 = call fastcc i32 @str_transcode(i32 noundef %0, ptr noundef %1, ptr noundef %4)
  %6 = load i64, ptr %4, align 8, !tbaa !22
  %7 = tail call fastcc i64 @encoded_dup(i64 noundef %6, i64 noundef %2, i32 noundef %5)
  call void @llvm.lifetime.end.p0(i64 8, ptr nonnull %4) #22
  ret i64 %7
}